; Function Attrs: mustprogress uwtable
define hidden void @_ZN4cvc58internal6theory2bv8TheoryBV20computeRelevantTermsERSt3setINS0_12NodeTemplateILb1EEESt4lessIS6_ESaIS6_EE(ptr nocapture noundef nonnull readonly align 8 dereferenceable(3808) %this, ptr noundef nonnull align 1 %termSet) unnamed_addr #3 align 2 {
entry:
  %d_internal = getelementptr inbounds i8, ptr %this, i64 408
  %0 = load ptr, ptr %d_internal, align 8
  %vtable = load ptr, ptr %0, align 8
  %vfn = getelementptr inbounds i8, ptr %vtable, i64 96
  %1 = load ptr, ptr %vfn, align 8
  tail call void %1(ptr noundef nonnull align 8 dereferenceable(32) %0, ptr noundef nonnull align 1 %termSet)
  ret void
}